(dp0
S'category'
p1
(lp2
Vdoccu
p3
aVtesting
p4
asS'descriptor'
p5
VThe Doccu Handbook
p6
sS'version'
p7
I0
sS'date-renew'
p8
V2015-06-26
p9
sS'title'
p10
VDoccu
p11
sS'date'
p12
V2015-06-25
p13
sS'userid'
p14
S'james milne'
p15
sS'content'
p16
(lp17
V# Doccu
p18
aV
p19
aV## Content Creation
p20
ag19
aV### New Document
p21
ag19
aV### Editing Documents
p22
ag19
aV### Approving Documents
p23
ag19
aV## Management
p24
ag19
aV### The Management Console
p25
ag19
aV### Local File Management
p26
asS'preamble'
p27
VThis document is formulated to assist those using the Doccu platform to generate and manage documents.
p28
s.