(dp0
S'date'
p1
S'2015-06-24'
p2
sS'category'
p3
S'testdocs'
p4
sS'content'
p5
(lp6
S'Some content'
p7
aS'is better than'
p8
aS'no content.'
p9
asS'date-renew'
p10
S'2016-06-24'
p11
sS'title'
p12
S'Documentation for Something Important'
p13
s.