(dp0
S'category'
p1
(lp2
Vtesting
p3
aV testdocs
p4
asS'descriptor'
p5
VThis is a descriptor with a ' in it.
p6
sS'version'
p7
I0
sS'date-renew'
p8
V2015-06-26
p9
sS'title'
p10
Vtestingquotes
p11
sS'date'
p12
V2015-06-25
p13
sS'content'
p14
(lp15
VNo curly quotes allowed...
p16
asS'preamble'
p17
VThe preamble has both ' and " quotes in it.
p18
s.