(dp0
S'category'
p1
(lp2
Vtesting
p3
aV testdocs
p4
asS'descriptor'
p5
VThis is the document descriptor for the new file naming format.
p6
sS'version'
p7
I0
sS'date-renew'
p8
V2015-06-27
p9
sS'title'
p10
VNew Document Filename Format
p11
sS'date'
p12
V2015-06-26
p13
sS'content'
p14
(lp15
VAll documents will now be named with VERSION.TITLE_IS_HERE.db in the scheme of things.
p16
asS'preamble'
p17
VFile format was previously to do with the URL entered, now it has to do with the title and version of the document.
p18
s.