(dp0
S'category'
p1
(lp2
S'testdocs'
p3
aS'testing'
p4
asS'descriptor'
p5
S'This is a policy descriptor. Short and sweet.'
p6
sS'version'
p7
S'24'
p8
sS'date-renew'
p9
S'2016-06-24'
p10
sS'title'
p11
S'Important Documentation'
p12
sS'date'
p13
S'2015-06-24'
p14
sS'content'
p15
(lp16
S'Some content'
p17
aS'is better'
p18
aS'than none.'
p19
asS'preamble'
p20
S'This is a preamble paragraph.'
p21
s.